target datalayout = "e-m:e-p270:32:32-p271:32:32-p272:64:64-i64:64-i128:128-f80:128-n8:16:32:64-S128"
target triple = "x86_64-pc-linux-gnu"

%"class.std::__cxx11::basic_string" = type { %"struct.std::__cxx11::basic_string<char>::_Alloc_hider", i64, %union.anon }
%"struct.std::__cxx11::basic_string<char>::_Alloc_hider" = type { ptr }
%union.anon = type { i64, [8 x i8] }
%"struct.cvc5::parser::Location" = type { i32, i32 }
%"struct.cvc5::parser::Span" = type { %"struct.cvc5::parser::Location", %"struct.cvc5::parser::Location" }
%"class.cvc5::parser::Lexer" = type <{ ptr, %"struct.cvc5::parser::Span", %"class.std::__cxx11::basic_string", %"class.std::vector", ptr, i8, [32768 x i8], [7 x i8], i64, i64, i32, i8, [3 x i8], i32, [4 x i8] }>
%"class.std::vector" = type { %"struct.std::_Vector_base" }
%"struct.std::_Vector_base" = type { %"struct.std::_Vector_base<cvc5::parser::Token, std::allocator<cvc5::parser::Token>>::_Vector_impl" }
%"struct.std::_Vector_base<cvc5::parser::Token, std::allocator<cvc5::parser::Token>>::_Vector_impl" = type { %"struct.std::_Vector_base<cvc5::parser::Token, std::allocator<cvc5::parser::Token>>::_Vector_impl_data" }
%"struct.std::_Vector_base<cvc5::parser::Token, std::allocator<cvc5::parser::Token>>::_Vector_impl_data" = type { ptr, ptr, ptr }

@_ZTIN4cvc56parser24ParserEndOfFileExceptionE = linkonce_odr hidden constant { ptr, ptr, ptr } { ptr getelementptr inbounds (ptr, ptr @_ZTVN10__cxxabiv120__si_class_type_infoE, i64 2), ptr @_ZTSN4cvc56parser24ParserEndOfFileExceptionE, ptr @_ZTIN4cvc56parser15ParserExceptionE }, comdat, align 8
@_ZTIN4cvc56parser15ParserExceptionE = external constant ptr

; Function Attrs: mustprogress uwtable
define hidden void @_ZN4cvc56parser5Lexer10parseErrorERKNSt7__cxx1112basic_stringIcSt11char_traitsIcESaIcEEEb(ptr noundef nonnull align 8 dereferenceable(32892) %0, ptr noundef nonnull align 8 dereferenceable(32) %1, i1 noundef zeroext %2) #4 align 2 personality ptr @__gxx_personality_v0 {
  %4 = alloca ptr, align 8
  %5 = alloca ptr, align 8
  %6 = alloca i8, align 1
  %7 = alloca ptr, align 8
  %8 = alloca i32, align 4
  store ptr %0, ptr %4, align 8, !tbaa !21
  store ptr %1, ptr %5, align 8, !tbaa !38
  %9 = zext i1 %2 to i8
  store i8 %9, ptr %6, align 1, !tbaa !44
  %10 = load ptr, ptr %4, align 8
  %11 = load i8, ptr %6, align 1, !tbaa !44, !range !66, !noundef !67
  %12 = trunc i8 %11 to i1
  br i1 %12, label %13, label %32

13:                                               ; preds = %3
  %14 = call ptr @__cxa_allocate_exception(i64 88) #3
  %15 = load ptr, ptr %5, align 8, !tbaa !38
  %16 = getelementptr inbounds nuw %"class.cvc5::parser::Lexer", ptr %10, i32 0, i32 2
  %17 = getelementptr inbounds nuw %"class.cvc5::parser::Lexer", ptr %10, i32 0, i32 1
  %18 = getelementptr inbounds nuw %"struct.cvc5::parser::Span", ptr %17, i32 0, i32 0
  %19 = getelementptr inbounds nuw %"struct.cvc5::parser::Location", ptr %18, i32 0, i32 0
  %20 = load i32, ptr %19, align 8, !tbaa !77
  %21 = zext i32 %20 to i64
  %22 = getelementptr inbounds nuw %"class.cvc5::parser::Lexer", ptr %10, i32 0, i32 1
  %23 = getelementptr inbounds nuw %"struct.cvc5::parser::Span", ptr %22, i32 0, i32 0
  %24 = getelementptr inbounds nuw %"struct.cvc5::parser::Location", ptr %23, i32 0, i32 1
  %25 = load i32, ptr %24, align 4, !tbaa !78
  %26 = zext i32 %25 to i64
  invoke void @_ZN4cvc56parser24ParserEndOfFileExceptionC1ERKNSt7__cxx1112basic_stringIcSt11char_traitsIcESaIcEEES9_mm(ptr noundef nonnull align 8 dereferenceable(88) %14, ptr noundef nonnull align 8 dereferenceable(32) %15, ptr noundef nonnull align 8 dereferenceable(32) %16, i64 noundef %21, i64 noundef %26)
          to label %27 unwind label %28

27:                                               ; preds = %13
  call void @__cxa_throw(ptr %14, ptr @_ZTIN4cvc56parser24ParserEndOfFileExceptionE, ptr @_ZN4cvc56parser15ParserExceptionD2Ev) #18
  unreachable

28:                                               ; preds = %13
  %29 = landingpad { ptr, i32 }
          cleanup
  %30 = extractvalue { ptr, i32 } %29, 0
  store ptr %30, ptr %7, align 8
  %31 = extractvalue { ptr, i32 } %29, 1
  store i32 %31, ptr %8, align 4
  call void @__cxa_free_exception(ptr %14) #3
  br label %51

32:                                               ; preds = %3
  %33 = call ptr @__cxa_allocate_exception(i64 88) #3
  %34 = load ptr, ptr %5, align 8, !tbaa !38
  %35 = getelementptr inbounds nuw %"class.cvc5::parser::Lexer", ptr %10, i32 0, i32 2
  %36 = getelementptr inbounds nuw %"class.cvc5::parser::Lexer", ptr %10, i32 0, i32 1
  %37 = getelementptr inbounds nuw %"struct.cvc5::parser::Span", ptr %36, i32 0, i32 0
  %38 = getelementptr inbounds nuw %"struct.cvc5::parser::Location", ptr %37, i32 0, i32 0
  %39 = load i32, ptr %38, align 8, !tbaa !77
  %40 = zext i32 %39 to i64
  %41 = getelementptr inbounds nuw %"class.cvc5::parser::Lexer", ptr %10, i32 0, i32 1
  %42 = getelementptr inbounds nuw %"struct.cvc5::parser::Span", ptr %41, i32 0, i32 0
  %43 = getelementptr inbounds nuw %"struct.cvc5::parser::Location", ptr %42, i32 0, i32 1
  %44 = load i32, ptr %43, align 4, !tbaa !78
  %45 = zext i32 %44 to i64
  invoke void @_ZN4cvc56parser15ParserExceptionC1ERKNSt7__cxx1112basic_stringIcSt11char_traitsIcESaIcEEES9_mm(ptr noundef nonnull align 8 dereferenceable(88) %33, ptr noundef nonnull align 8 dereferenceable(32) %34, ptr noundef nonnull align 8 dereferenceable(32) %35, i64 noundef %40, i64 noundef %45)
          to label %46 unwind label %47

46:                                               ; preds = %32
  call void @__cxa_throw(ptr %33, ptr @_ZTIN4cvc56parser15ParserExceptionE, ptr @_ZN4cvc56parser15ParserExceptionD2Ev) #18
  unreachable

47:                                               ; preds = %32
  %48 = landingpad { ptr, i32 }
          cleanup
  %49 = extractvalue { ptr, i32 } %48, 0
  store ptr %49, ptr %7, align 8
  %50 = extractvalue { ptr, i32 } %48, 1
  store i32 %50, ptr %8, align 4
  call void @__cxa_free_exception(ptr %33) #3
  br label %51

51:                                               ; preds = %47, %28
  %52 = load ptr, ptr %7, align 8
  %53 = load i32, ptr %8, align 4
  %54 = insertvalue { ptr, i32 } poison, ptr %52, 0
  %55 = insertvalue { ptr, i32 } %54, i32 %53, 1
  resume { ptr, i32 } %55
}