; Function Attrs: mustprogress noreturn uwtable
define hidden void @_ZN4cvc56parser5Lexer10parseErrorERKNSt7__cxx1112basic_stringIcSt11char_traitsIcESaIcEEEb(ptr noundef nonnull align 8 dereferenceable(32892) %0, ptr noundef nonnull align 8 dereferenceable(32) %1, i1 noundef zeroext %2) local_unnamed_addr #7 align 2 personality ptr @__gxx_personality_v0 {
  %4 = tail call ptr @__cxa_allocate_exception(i64 88) #22
  %5 = getelementptr inbounds nuw i8, ptr %0, i64 24
  %6 = getelementptr inbounds nuw i8, ptr %0, i64 8
  %7 = load i32, ptr %6, align 8, !tbaa !81
  %8 = zext i32 %7 to i64
  %9 = getelementptr inbounds nuw i8, ptr %0, i64 12
  %10 = load i32, ptr %9, align 4, !tbaa !82
  %11 = zext i32 %10 to i64
  br i1 %2, label %12, label %16

12:                                               ; preds = %3
  invoke void @_ZN4cvc56parser24ParserEndOfFileExceptionC1ERKNSt7__cxx1112basic_stringIcSt11char_traitsIcESaIcEEES9_mm(ptr noundef nonnull align 8 dereferenceable(88) %4, ptr noundef nonnull align 8 dereferenceable(32) %1, ptr noundef nonnull align 8 dereferenceable(32) %5, i64 noundef %8, i64 noundef %11)
          to label %13 unwind label %14

13:                                               ; preds = %12
  tail call void @__cxa_throw(ptr nonnull %4, ptr nonnull @_ZTIN4cvc56parser24ParserEndOfFileExceptionE, ptr nonnull @_ZN4cvc56parser15ParserExceptionD2Ev) #23
  unreachable

14:                                               ; preds = %12
  %15 = landingpad { ptr, i32 }
          cleanup
  br label %20

16:                                               ; preds = %3
  invoke void @_ZN4cvc56parser15ParserExceptionC1ERKNSt7__cxx1112basic_stringIcSt11char_traitsIcESaIcEEES9_mm(ptr noundef nonnull align 8 dereferenceable(88) %4, ptr noundef nonnull align 8 dereferenceable(32) %1, ptr noundef nonnull align 8 dereferenceable(32) %5, i64 noundef %8, i64 noundef %11)
          to label %17 unwind label %18

17:                                               ; preds = %16
  tail call void @__cxa_throw(ptr nonnull %4, ptr nonnull @_ZTIN4cvc56parser15ParserExceptionE, ptr nonnull @_ZN4cvc56parser15ParserExceptionD2Ev) #23
  unreachable

18:                                               ; preds = %16
  %19 = landingpad { ptr, i32 }
          cleanup
  br label %20

20:                                               ; preds = %18, %14
  %.pn = phi { ptr, i32 } [ %15, %14 ], [ %19, %18 ]
  tail call void @__cxa_free_exception(ptr nonnull %4) #22
  resume { ptr, i32 } %.pn
}